; Function Attrs: nounwind uwtable
define hidden void @zim_DOMDocument___construct(ptr nocapture noundef readonly %0, ptr nocapture noundef readnone %1) local_unnamed_addr #0 {
  %3 = alloca ptr, align 8
  %4 = alloca ptr, align 8
  %5 = alloca i64, align 8
  %6 = alloca i64, align 8
  store ptr null, ptr %4, align 8
  store i64 0, ptr %5, align 8
  store i64 0, ptr %6, align 8
  %7 = getelementptr inbounds i8, ptr %0, i64 32
  %8 = getelementptr inbounds i8, ptr %0, i64 44
  %9 = load i32, ptr %8, align 4
  %10 = call i32 (i32, ptr, ...) @zend_parse_parameters(i32 noundef %9, ptr noundef nonnull @.str.17, ptr noundef nonnull %4, ptr noundef nonnull %6, ptr noundef nonnull %3, ptr noundef nonnull %5) #10
  %11 = icmp eq i32 %10, -1
  br i1 %11, label %12, label %15

12:                                               ; preds = %2
  %13 = load ptr, ptr getelementptr inbounds (%struct._zend_executor_globals, ptr @executor_globals, i64 0, i32 50), align 8
  %14 = icmp ne ptr %13, null
  call void @llvm.assume(i1 %14)
  br label %38

15:                                               ; preds = %2
  %16 = load ptr, ptr %4, align 8
  %17 = call ptr @xmlNewDoc(ptr noundef %16) #10
  %.not = icmp eq ptr %17, null
  br i1 %.not, label %18, label %19

18:                                               ; preds = %15
  call void @php_dom_throw_error(i32 noundef 11, i32 noundef 1) #10
  br label %38

19:                                               ; preds = %15
  %20 = load i64, ptr %5, align 8
  %.not16 = icmp eq i64 %20, 0
  br i1 %.not16, label %25, label %21

21:                                               ; preds = %19
  %22 = load ptr, ptr %3, align 8
  %23 = call ptr @xmlStrdup(ptr noundef %22) #10
  %24 = getelementptr inbounds i8, ptr %17, i64 112
  store ptr %23, ptr %24, align 8
  br label %25

25:                                               ; preds = %21, %19
  %26 = load ptr, ptr %7, align 8
  %27 = getelementptr inbounds i8, ptr %26, i64 -24
  %28 = call ptr @dom_object_get_node(ptr noundef nonnull %27) #10
  %.not17 = icmp eq ptr %28, null
  br i1 %.not17, label %33, label %29

29:                                               ; preds = %25
  %30 = call i32 @php_libxml_decrement_node_ptr(ptr noundef nonnull %27) #10
  %31 = call i32 @php_libxml_decrement_doc_ref(ptr noundef nonnull %27) #10
  %.not18 = icmp eq i32 %31, 0
  br i1 %.not18, label %33, label %32

32:                                               ; preds = %29
  store ptr null, ptr %28, align 8
  br label %33

33:                                               ; preds = %29, %32, %25
  %34 = getelementptr inbounds i8, ptr %26, i64 -16
  store ptr null, ptr %34, align 8
  %35 = call i32 @php_libxml_increment_doc_ref(ptr noundef nonnull %27, ptr noundef nonnull %17) #10
  %36 = icmp ne i32 %35, -1
  call void @llvm.assume(i1 %36)
  %37 = call i32 @php_libxml_increment_node_ptr(ptr noundef nonnull %27, ptr noundef nonnull %17, ptr noundef nonnull %27) #10
  br label %38

38:                                               ; preds = %33, %18, %12
  ret void
}